; Function Attrs: nounwind uwtable
define hidden void @aom_highbd_h_predictor_16x32_c(ptr noundef %0, i64 noundef %1, ptr nocapture noundef readnone %2, ptr nocapture noundef readonly %3, i32 noundef %4) local_unnamed_addr #1 {
  br label %6

6:                                                ; preds = %6, %5
  %indvars.iv.i = phi i64 [ 0, %5 ], [ %indvars.iv.next.i, %6 ]
  %.081.i = phi ptr [ %0, %5 ], [ %11, %6 ]
  %7 = getelementptr inbounds i16, ptr %3, i64 %indvars.iv.i
  %8 = load i16, ptr %7, align 2
  %9 = zext i16 %8 to i32
  %10 = tail call ptr @aom_memset16(ptr noundef %.081.i, i32 noundef %9, i64 noundef 16) #8
  %11 = getelementptr inbounds i16, ptr %.081.i, i64 %1
  %indvars.iv.next.i = add nuw nsw i64 %indvars.iv.i, 1
  %exitcond.not.i = icmp eq i64 %indvars.iv.next.i, 32
  br i1 %exitcond.not.i, label %highbd_h_predictor.exit, label %6, !llvm.loop !14

highbd_h_predictor.exit:                          ; preds = %6
  ret void
}